; Function Attrs: mustprogress uwtable
define hidden void @_ZN15fpa_decl_plugin8finalizeEv(ptr nocapture noundef nonnull readonly align 8 dereferenceable(1008) %this) unnamed_addr #3 align 2 {
entry:
  %m_real_sort = getelementptr inbounds i8, ptr %this, i64 976
  %0 = load ptr, ptr %m_real_sort, align 8
  %tobool.not = icmp eq ptr %0, null
  br i1 %tobool.not, label %if.end, label %if.then.i

if.then.i:                                        ; preds = %entry
  %m_manager = getelementptr inbounds i8, ptr %this, i64 8
  %1 = load ptr, ptr %m_manager, align 8
  %m_ref_count.i.i = getelementptr inbounds i8, ptr %0, i64 8
  %2 = load i32, ptr %m_ref_count.i.i, align 4
  %dec.i.i = add i32 %2, -1
  store i32 %dec.i.i, ptr %m_ref_count.i.i, align 4
  %cmp.i = icmp eq i32 %dec.i.i, 0
  br i1 %cmp.i, label %if.then2.i, label %if.end

if.then2.i:                                       ; preds = %if.then.i
  tail call void @_ZN11ast_manager11delete_nodeEP3ast(ptr noundef nonnull align 8 dereferenceable(976) %1, ptr noundef nonnull %0)
  br label %if.end

if.end:                                           ; preds = %if.then2.i, %if.then.i, %entry
  %m_int_sort = getelementptr inbounds i8, ptr %this, i64 984
  %3 = load ptr, ptr %m_int_sort, align 8
  %tobool3.not = icmp eq ptr %3, null
  br i1 %tobool3.not, label %if.end7, label %if.then.i3

if.then.i3:                                       ; preds = %if.end
  %m_manager5 = getelementptr inbounds i8, ptr %this, i64 8
  %4 = load ptr, ptr %m_manager5, align 8
  %m_ref_count.i.i4 = getelementptr inbounds i8, ptr %3, i64 8
  %5 = load i32, ptr %m_ref_count.i.i4, align 4
  %dec.i.i5 = add i32 %5, -1
  store i32 %dec.i.i5, ptr %m_ref_count.i.i4, align 4
  %cmp.i6 = icmp eq i32 %dec.i.i5, 0
  br i1 %cmp.i6, label %if.then2.i7, label %if.end7

if.then2.i7:                                      ; preds = %if.then.i3
  tail call void @_ZN11ast_manager11delete_nodeEP3ast(ptr noundef nonnull align 8 dereferenceable(976) %4, ptr noundef nonnull %3)
  br label %if.end7

if.end7:                                          ; preds = %if.then2.i7, %if.then.i3, %if.end
  ret void
}